target datalayout = "e-m:e-p270:32:32-p271:32:32-p272:64:64-i64:64-i128:128-f80:128-n8:16:32:64-S128"
target triple = "x86_64-pc-linux-gnu"

%class.symbol = type { ptr }
%class.params_ref = type { ptr }
%"class.opt::opt_solver" = type <{ %class.solver_na2as, %struct.smt_params, %"class.smt::kernel", ptr, ptr, ptr, %class.symbol, %class.ref.1, %class.svector.2, %class.vector.4, %class.ref_vector_core.5, %class.ref_vector, i8, [7 x i8], %class.statistics, i8, i8, [6 x i8] }>
%class.solver_na2as = type { %class.solver, %class.ref_vector, %class.svector }
%class.solver = type { %class.check_sat_result, %"class.user_propagator::core", %class.params_ref, %class.symbol }
%class.check_sat_result = type { ptr, ptr, %class.ref_vector, %class.obj_ref, i32, i32, %class.ref, double }
%class.obj_ref = type { ptr, ptr }
%class.ref = type { ptr }
%"class.user_propagator::core" = type { ptr }
%class.svector = type { %class.vector.0 }
%class.vector.0 = type { ptr }
%struct.smt_params = type { %struct.preprocessor_params.base, %struct.dyn_ack_params, %struct.qi_params, %struct.theory_arith_params.base, i8, %struct.theory_array_params.base, %struct.theory_bv_params, [4 x i8], %struct.theory_str_params.base, %struct.theory_seq_params, %struct.theory_pb_params.base, %struct.theory_datatype_params, i8, i8, i8, i8, i8, i8, i32, i8, i32, double, double, i32, i32, i32, i32, i32, i8, i32, i32, i32, i32, i32, i32, i8, i32, i8, i8, i8, i8, i8, %class.symbol, i8, i8, i32, i32, i8, i8, i8, i8, i32, i8, i32, i32, double, i8, double, double, i32, i8, i32, i32, double, i32, i32, i32, i32, i32, double, i8, i8, i8, i8, %class.symbol, i8, i8, i8, i8, i8, i8, i32, i8, i8, i8, i8, i8, i8, i8, i8, i8, double, i8, %class.symbol }
%struct.preprocessor_params.base = type <{ %struct.pattern_inference_params.base, %struct.bit_blaster_params, i32, i32, i8, i8, i8, i8, i8, i8, i8, i8, i8, i8, i8, i8, i8, i8, i8, i8, i8, i8, i8 }>
%struct.pattern_inference_params.base = type <{ i8, [3 x i8], i32, i8, i8, [2 x i8], i32, i8, [3 x i8], i32, i32, i8, [3 x i8], i32, i8, i8 }>
%struct.bit_blaster_params = type { i8, i8 }
%struct.dyn_ack_params = type { i32, i8, double, i32, i32, double }
%struct.qi_params = type { %"class.std::__cxx11::basic_string", %"class.std::__cxx11::basic_string", double, double, i32, i32, i8, i32, i32, i8, i8, i32, i8, i8, i8, i8, i32, i32, i32, i8, i32, ptr }
%"class.std::__cxx11::basic_string" = type { %"struct.std::__cxx11::basic_string<char>::_Alloc_hider", i64, %union.anon }
%"struct.std::__cxx11::basic_string<char>::_Alloc_hider" = type { ptr }
%union.anon = type { i64, [8 x i8] }
%struct.theory_arith_params.base = type <{ i8, i8, [2 x i8], i32, i8, [3 x i8], i32, i8, [3 x i8], i32, i8, i8, [2 x i8], i32, i32, i8, i8, [2 x i8], i32, i32, i8, [3 x i8], i32, i32, i8, [3 x i8], double, double, i8, [3 x i8], i32, i8, i8, i8, i8, i8, [3 x i8], i32, i8, i8, [2 x i8], i32, i8, [3 x i8], i32, i8, i8, i8, i8, i8, i8, [2 x i8], i32, i8, i8, [2 x i8], i32, i8, [3 x i8], i32, i8, i8, i8 }>
%struct.theory_array_params.base = type <{ i8, i8, [2 x i8], i32, i8, i8, [2 x i8], i32, i8, i8, i8, i8, i32, i8 }>
%struct.theory_bv_params = type { i32, i8, i8, i8, i8, i32, i8, i8, i8, i8, i32 }
%struct.theory_str_params.base = type <{ i8, i8, i8, i8, i8, i8, i8, i8, double, i32, i32, i32, i32, i32, i8, i8 }>
%struct.theory_seq_params = type { i8, i8, i32, i32 }
%struct.theory_pb_params.base = type <{ i32, i8 }>
%struct.theory_datatype_params = type { i32 }
%"class.smt::kernel" = type { ptr }
%class.ref.1 = type { ptr }
%class.svector.2 = type { %class.vector.3 }
%class.vector.3 = type { ptr }
%class.vector.4 = type { ptr }
%class.ref_vector_core.5 = type { %class.ptr_vector.6 }
%class.ptr_vector.6 = type { %class.vector.7 }
%class.vector.7 = type { ptr }
%class.ref_vector = type { %class.ref_vector_core }
%class.ref_vector_core = type { %class.ref_manager_wrapper, %class.ptr_vector }
%class.ref_manager_wrapper = type { ptr }
%class.ptr_vector = type { %class.vector }
%class.vector = type { ptr }
%class.statistics = type { %class.svector.8, %class.svector.10 }
%class.svector.8 = type { %class.vector.9 }
%class.vector.9 = type { ptr }
%class.svector.10 = type { %class.vector.11 }
%class.vector.11 = type { ptr }
%class.obj_ref.58 = type { ptr, ptr }
%class.ptr_vector.73 = type { %class.vector.74 }
%class.vector.74 = type { ptr }
%class.model_core = type { ptr, ptr, i32, [4 x i8], %class.obj_map.511, %class.obj_map.516, %class.ptr_vector.73, %class.ptr_vector.73, %class.ptr_vector.73 }
%class.obj_map.511 = type { %class.core_hashtable.512 }
%class.core_hashtable.512 = type <{ ptr, i32, i32, i32, [4 x i8] }>
%class.obj_map.516 = type { %class.core_hashtable.517 }
%class.core_hashtable.517 = type <{ ptr, i32, i32, i32, [4 x i8] }>

; Function Attrs: mustprogress uwtable
define linkonce_odr hidden void @_Z7deallocI10model_coreEvPT_(ptr noundef %0) #6 comdat {
  %2 = alloca ptr, align 8
  store ptr %0, ptr %2, align 8, !tbaa !751
  %3 = load ptr, ptr %2, align 8, !tbaa !751
  %4 = icmp eq ptr %3, null
  br i1 %4, label %5, label %6

5:                                                ; preds = %1
  br label %12

6:                                                ; preds = %1
  %7 = load ptr, ptr %2, align 8, !tbaa !751
  %8 = load ptr, ptr %7, align 8, !tbaa !36
  %9 = getelementptr inbounds ptr, ptr %8, i64 0
  %10 = load ptr, ptr %9, align 8
  call void %10(ptr noundef nonnull align 8 dereferenceable(96) %7) #3
  %11 = load ptr, ptr %2, align 8, !tbaa !751
  call void @_ZN6memory10deallocateEPv(ptr noundef %11)
  br label %12

12:                                               ; preds = %6, %5
  ret void
}

; Function Attrs: mustprogress uwtable
define linkonce_odr hidden void @_ZN10model_core7dec_refEv(ptr noundef nonnull align 8 dereferenceable(96) %0) #6 comdat align 2 {
  %2 = alloca ptr, align 8
  store ptr %0, ptr %2, align 8, !tbaa !751
  %3 = load ptr, ptr %2, align 8
  %4 = getelementptr inbounds nuw %class.model_core, ptr %3, i32 0, i32 2
  %5 = load i32, ptr %4, align 8, !tbaa !753
  %6 = add i32 %5, -1
  store i32 %6, ptr %4, align 8, !tbaa !753
  %7 = getelementptr inbounds nuw %class.model_core, ptr %3, i32 0, i32 2
  %8 = load i32, ptr %7, align 8, !tbaa !753
  %9 = icmp eq i32 %8, 0
  br i1 %9, label %10, label %11

10:                                               ; preds = %1
  call void @_Z7deallocI10model_coreEvPT_(ptr noundef %3)
  br label %11

11:                                               ; preds = %10, %1
  ret void
}

; Function Attrs: mustprogress nounwind uwtable
define linkonce_odr hidden void @_ZN10model_core7inc_refEv(ptr noundef nonnull align 8 dereferenceable(96) %0) #4 comdat align 2 {
  %2 = alloca ptr, align 8
  store ptr %0, ptr %2, align 8, !tbaa !751
  %3 = load ptr, ptr %2, align 8
  %4 = getelementptr inbounds nuw %class.model_core, ptr %3, i32 0, i32 2
  %5 = load i32, ptr %4, align 8, !tbaa !753
  %6 = add i32 %5, 1
  store i32 %6, ptr %4, align 8, !tbaa !753
  ret void
}

; Function Attrs: mustprogress uwtable
define linkonce_odr hidden void @_ZN21ref_unmanaged_wrapperI5modelE7dec_refEPS0_(ptr noundef %0) #6 comdat align 2 {
  %2 = alloca ptr, align 8
  store ptr %0, ptr %2, align 8, !tbaa !233
  %3 = load ptr, ptr %2, align 8, !tbaa !233
  %4 = icmp ne ptr %3, null
  br i1 %4, label %5, label %7

5:                                                ; preds = %1
  %6 = load ptr, ptr %2, align 8, !tbaa !233
  call void @_ZN10model_core7dec_refEv(ptr noundef nonnull align 8 dereferenceable(96) %6)
  br label %7

7:                                                ; preds = %5, %1
  ret void
}

; Function Attrs: mustprogress nounwind uwtable
define linkonce_odr hidden void @_ZN21ref_unmanaged_wrapperI5modelE7inc_refEPS0_(ptr noundef %0) #4 comdat align 2 {
  %2 = alloca ptr, align 8
  store ptr %0, ptr %2, align 8, !tbaa !233
  %3 = load ptr, ptr %2, align 8, !tbaa !233
  %4 = icmp ne ptr %3, null
  br i1 %4, label %5, label %7

5:                                                ; preds = %1
  %6 = load ptr, ptr %2, align 8, !tbaa !233
  call void @_ZN10model_core7inc_refEv(ptr noundef nonnull align 8 dereferenceable(96) %6)
  br label %7

7:                                                ; preds = %5, %1
  ret void
}

; Function Attrs: mustprogress uwtable
define linkonce_odr hidden void @_ZN15ref_vector_coreI5model21ref_unmanaged_wrapperIS0_EE7dec_refEPS0_(ptr noundef nonnull align 8 dereferenceable(8) %0, ptr noundef %1) #6 comdat align 2 {
  %3 = alloca ptr, align 8
  %4 = alloca ptr, align 8
  store ptr %0, ptr %3, align 8, !tbaa !213
  store ptr %1, ptr %4, align 8, !tbaa !233
  %5 = load ptr, ptr %4, align 8, !tbaa !233
  call void @_ZN21ref_unmanaged_wrapperI5modelE7dec_refEPS0_(ptr noundef %5)
  ret void
}

; Function Attrs: mustprogress nounwind uwtable
define linkonce_odr hidden noundef nonnull align 8 dereferenceable(8) ptr @_ZN6vectorIP5modelLb0EjEixEj(ptr noundef nonnull align 8 dereferenceable(8) %0, i32 noundef %1) #4 comdat align 2 {
  %3 = alloca ptr, align 8
  %4 = alloca i32, align 4
  store ptr %0, ptr %3, align 8, !tbaa !600
  store i32 %1, ptr %4, align 4, !tbaa !8
  %5 = load ptr, ptr %3, align 8
  %6 = getelementptr inbounds nuw %class.vector.7, ptr %5, i32 0, i32 0
  %7 = load ptr, ptr %6, align 8, !tbaa !602
  %8 = load i32, ptr %4, align 4, !tbaa !8
  %9 = zext i32 %8 to i64
  %10 = getelementptr inbounds nuw ptr, ptr %7, i64 %9
  ret ptr %10
}

; Function Attrs: mustprogress uwtable
define linkonce_odr hidden void @_ZN15ref_vector_coreI5model21ref_unmanaged_wrapperIS0_EE7inc_refEPS0_(ptr noundef nonnull align 8 dereferenceable(8) %0, ptr noundef %1) #6 comdat align 2 {
  %3 = alloca ptr, align 8
  %4 = alloca ptr, align 8
  store ptr %0, ptr %3, align 8, !tbaa !213
  store ptr %1, ptr %4, align 8, !tbaa !233
  %5 = load ptr, ptr %4, align 8, !tbaa !233
  call void @_ZN21ref_unmanaged_wrapperI5modelE7inc_refEPS0_(ptr noundef %5)
  ret void
}

; Function Attrs: mustprogress uwtable
define linkonce_odr hidden void @_ZN15ref_vector_coreI5model21ref_unmanaged_wrapperIS0_EE3setEjPS0_(ptr noundef nonnull align 8 dereferenceable(8) %0, i32 noundef %1, ptr noundef %2) #6 comdat align 2 {
  %4 = alloca ptr, align 8
  %5 = alloca i32, align 4
  %6 = alloca ptr, align 8
  store ptr %0, ptr %4, align 8, !tbaa !213
  store i32 %1, ptr %5, align 4, !tbaa !8
  store ptr %2, ptr %6, align 8, !tbaa !233
  %7 = load ptr, ptr %4, align 8
  %8 = load ptr, ptr %6, align 8, !tbaa !233
  call void @_ZN15ref_vector_coreI5model21ref_unmanaged_wrapperIS0_EE7inc_refEPS0_(ptr noundef nonnull align 8 dereferenceable(8) %7, ptr noundef %8)
  %9 = getelementptr inbounds nuw %class.ref_vector_core.5, ptr %7, i32 0, i32 0
  %10 = load i32, ptr %5, align 4, !tbaa !8
  %11 = call noundef nonnull align 8 dereferenceable(8) ptr @_ZN6vectorIP5modelLb0EjEixEj(ptr noundef nonnull align 8 dereferenceable(8) %9, i32 noundef %10)
  %12 = load ptr, ptr %11, align 8, !tbaa !233
  call void @_ZN15ref_vector_coreI5model21ref_unmanaged_wrapperIS0_EE7dec_refEPS0_(ptr noundef nonnull align 8 dereferenceable(8) %7, ptr noundef %12)
  %13 = load ptr, ptr %6, align 8, !tbaa !233
  %14 = getelementptr inbounds nuw %class.ref_vector_core.5, ptr %7, i32 0, i32 0
  %15 = load i32, ptr %5, align 4, !tbaa !8
  %16 = call noundef nonnull align 8 dereferenceable(8) ptr @_ZN6vectorIP5modelLb0EjEixEj(ptr noundef nonnull align 8 dereferenceable(8) %14, i32 noundef %15)
  store ptr %13, ptr %16, align 8, !tbaa !233
  ret void
}

; Function Attrs: mustprogress nounwind uwtable
define linkonce_odr hidden noundef ptr @_ZNK3refI5modelE3getEv(ptr noundef nonnull align 8 dereferenceable(8) %0) #4 comdat align 2 {
  %2 = alloca ptr, align 8
  store ptr %0, ptr %2, align 8, !tbaa !205
  %3 = load ptr, ptr %2, align 8
  %4 = getelementptr inbounds nuw %class.ref.1, ptr %3, i32 0, i32 0
  %5 = load ptr, ptr %4, align 8, !tbaa !207
  ret ptr %5
}

; Function Attrs: mustprogress uwtable
define hidden noundef i32 @_ZN3opt10opt_solver13adjust_resultE5lbool(ptr noundef nonnull align 8 dereferenceable(1042) %0, i32 noundef %1) #6 align 2 {
  %3 = alloca ptr, align 8
  %4 = alloca i32, align 4
  store ptr %0, ptr %3, align 8, !tbaa !28
  store i32 %1, ptr %4, align 4, !tbaa !244
  %5 = load ptr, ptr %3, align 8
  %6 = load i32, ptr %4, align 4, !tbaa !244
  %7 = icmp eq i32 %6, 0
  br i1 %7, label %8, label %14

8:                                                ; preds = %2
  %9 = getelementptr inbounds nuw %"class.opt::opt_solver", ptr %5, i32 0, i32 2
  %10 = call noundef i32 @_ZNK3smt6kernel12last_failureEv(ptr noundef nonnull align 8 dereferenceable(8) %9)
  %11 = icmp eq i32 %10, 8
  br i1 %11, label %12, label %14

12:                                               ; preds = %8
  store i32 1, ptr %4, align 4, !tbaa !244
  %13 = getelementptr inbounds nuw %"class.opt::opt_solver", ptr %5, i32 0, i32 16
  store i8 1, ptr %13, align 1, !tbaa !117
  br label %14

14:                                               ; preds = %12, %8, %2
  %15 = load i32, ptr %4, align 4, !tbaa !244
  ret i32 %15
}

; Function Attrs: mustprogress nounwind uwtable
define linkonce_odr hidden noundef ptr @_ZNK7obj_refI4expr11ast_managerEcvPS0_Ev(ptr noundef nonnull align 8 dereferenceable(16) %0) #4 comdat align 2 {
  %2 = alloca ptr, align 8
  store ptr %0, ptr %2, align 8, !tbaa !271
  %3 = load ptr, ptr %2, align 8
  %4 = getelementptr inbounds nuw %class.obj_ref.58, ptr %3, i32 0, i32 0
  %5 = load ptr, ptr %4, align 8, !tbaa !273
  ret ptr %5
}

; Function Attrs: mustprogress uwtable
define hidden noundef zeroext i1 @_ZN3opt10opt_solver11bound_valueEjR16inf_eps_rationalI12inf_rationalE(ptr noundef nonnull align 8 dereferenceable(1042) %0, i32 noundef %1, ptr noundef nonnull align 8 dereferenceable(96) %2) #6 align 2 personality ptr @__gxx_personality_v0 {
  %4 = alloca ptr, align 8
  %5 = alloca i32, align 4
  %6 = alloca ptr, align 8
  %7 = alloca %class.obj_ref.58, align 8
  %8 = alloca ptr, align 8
  %9 = alloca i32, align 4
  %10 = alloca i32, align 4
  store ptr %0, ptr %4, align 8, !tbaa !28
  store i32 %1, ptr %5, align 4, !tbaa !8
  store ptr %2, ptr %6, align 8, !tbaa !281
  %11 = load ptr, ptr %4, align 8
  %12 = load ptr, ptr %11, align 8, !tbaa !36
  %13 = getelementptr inbounds ptr, ptr %12, i64 50
  %14 = load ptr, ptr %13, align 8
  call void %14(ptr noundef nonnull align 8 dereferenceable(1042) %11)
  call void @llvm.lifetime.start.p0(i64 16, ptr %7) #3
  %15 = load i32, ptr %5, align 4, !tbaa !8
  %16 = load ptr, ptr %6, align 8, !tbaa !281
  call void @_ZN3opt10opt_solver5mk_geEjRK16inf_eps_rationalI12inf_rationalE(ptr dead_on_unwind writable sret(%class.obj_ref.58) align 8 %7, ptr noundef nonnull align 8 dereferenceable(1042) %11, i32 noundef %15, ptr noundef nonnull align 8 dereferenceable(96) %16)
  %17 = invoke noundef ptr @_ZNK7obj_refI4expr11ast_managerEcvPS0_Ev(ptr noundef nonnull align 8 dereferenceable(16) %7)
          to label %18 unwind label %38

18:                                               ; preds = %3
  invoke void @_ZN6solver11assert_exprEP4expr(ptr noundef nonnull align 8 dereferenceable(96) %11, ptr noundef %17)
          to label %19 unwind label %38

19:                                               ; preds = %18
  call void @llvm.lifetime.start.p0(i64 4, ptr %10) #3
  %20 = getelementptr inbounds nuw %"class.opt::opt_solver", ptr %11, i32 0, i32 2
  %21 = invoke noundef i32 @_ZN3smt6kernel5checkEjPKP4expr(ptr noundef nonnull align 8 dereferenceable(8) %20, i32 noundef 0, ptr noundef null)
          to label %22 unwind label %42

22:                                               ; preds = %19
  store i32 %21, ptr %10, align 4, !tbaa !244
  %23 = load i32, ptr %10, align 4, !tbaa !244
  %24 = invoke noundef i32 @_ZN3opt10opt_solver13adjust_resultE5lbool(ptr noundef nonnull align 8 dereferenceable(1042) %11, i32 noundef %23)
          to label %25 unwind label %42

25:                                               ; preds = %22
  store i32 %24, ptr %10, align 4, !tbaa !244
  %26 = load i32, ptr %10, align 4, !tbaa !244
  %27 = icmp eq i32 %26, 1
  br i1 %27, label %28, label %46

28:                                               ; preds = %25
  %29 = getelementptr inbounds nuw %"class.opt::opt_solver", ptr %11, i32 0, i32 2
  %30 = getelementptr inbounds nuw %"class.opt::opt_solver", ptr %11, i32 0, i32 7
  invoke void @_ZN3smt6kernel9get_modelER3refI5modelE(ptr noundef nonnull align 8 dereferenceable(8) %29, ptr noundef nonnull align 8 dereferenceable(8) %30)
          to label %31 unwind label %42

31:                                               ; preds = %28
  %32 = getelementptr inbounds nuw %"class.opt::opt_solver", ptr %11, i32 0, i32 10
  %33 = load i32, ptr %5, align 4, !tbaa !8
  %34 = getelementptr inbounds nuw %"class.opt::opt_solver", ptr %11, i32 0, i32 7
  %35 = invoke noundef ptr @_ZNK3refI5modelE3getEv(ptr noundef nonnull align 8 dereferenceable(8) %34)
          to label %36 unwind label %42

36:                                               ; preds = %31
  invoke void @_ZN15ref_vector_coreI5model21ref_unmanaged_wrapperIS0_EE3setEjPS0_(ptr noundef nonnull align 8 dereferenceable(8) %32, i32 noundef %33, ptr noundef %35)
          to label %37 unwind label %42

37:                                               ; preds = %36
  br label %46

38:                                               ; preds = %18, %3
  %39 = landingpad { ptr, i32 }
          cleanup
  %40 = extractvalue { ptr, i32 } %39, 0
  store ptr %40, ptr %8, align 8
  %41 = extractvalue { ptr, i32 } %39, 1
  store i32 %41, ptr %9, align 4
  br label %53

42:                                               ; preds = %46, %36, %31, %28, %22, %19
  %43 = landingpad { ptr, i32 }
          cleanup
  %44 = extractvalue { ptr, i32 } %43, 0
  store ptr %44, ptr %8, align 8
  %45 = extractvalue { ptr, i32 } %43, 1
  store i32 %45, ptr %9, align 4
  call void @llvm.lifetime.end.p0(i64 4, ptr %10) #3
  br label %53

46:                                               ; preds = %37, %25
  %47 = load ptr, ptr %11, align 8, !tbaa !36
  %48 = getelementptr inbounds ptr, ptr %47, i64 51
  %49 = load ptr, ptr %48, align 8
  invoke void %49(ptr noundef nonnull align 8 dereferenceable(1042) %11, i32 noundef 1)
          to label %50 unwind label %42

50:                                               ; preds = %46
  %51 = load i32, ptr %10, align 4, !tbaa !244
  %52 = icmp eq i32 %51, 1
  call void @llvm.lifetime.end.p0(i64 4, ptr %10) #3
  call void @_ZN7obj_refI4expr11ast_managerED2Ev(ptr noundef nonnull align 8 dereferenceable(16) %7) #3
  call void @llvm.lifetime.end.p0(i64 16, ptr %7) #3
  ret i1 %52

53:                                               ; preds = %42, %38
  call void @_ZN7obj_refI4expr11ast_managerED2Ev(ptr noundef nonnull align 8 dereferenceable(16) %7) #3
  call void @llvm.lifetime.end.p0(i64 16, ptr %7) #3
  br label %54

54:                                               ; preds = %53
  %55 = load ptr, ptr %8, align 8
  %56 = load i32, ptr %9, align 4
  %57 = insertvalue { ptr, i32 } poison, ptr %55, 0
  %58 = insertvalue { ptr, i32 } %57, i32 %56, 1
  resume { ptr, i32 } %58
}