; Function Attrs: mustprogress uwtable
define hidden noundef zeroext i1 @_ZN3opt10opt_solver11bound_valueEjR16inf_eps_rationalI12inf_rationalE(ptr noundef nonnull align 8 dereferenceable(1042) %0, i32 noundef %1, ptr noundef nonnull align 8 dereferenceable(96) %2) local_unnamed_addr #4 align 2 personality ptr @__gxx_personality_v0 {
  %4 = alloca %class.obj_ref.58, align 8
  %5 = load ptr, ptr %0, align 8, !tbaa !3
  %6 = getelementptr inbounds nuw i8, ptr %5, i64 400
  %7 = load ptr, ptr %6, align 8
  tail call void %7(ptr noundef nonnull align 8 dereferenceable(1042) %0)
  call void @llvm.lifetime.start.p0(i64 16, ptr nonnull %4) #26
  call void @_ZN3opt10opt_solver5mk_geEjRK16inf_eps_rationalI12inf_rationalE(ptr dead_on_unwind nonnull writable sret(%class.obj_ref.58) align 8 %4, ptr noundef nonnull align 8 dereferenceable(1042) %0, i32 noundef %1, ptr noundef nonnull align 8 dereferenceable(96) %2)
  %8 = load ptr, ptr %4, align 8, !tbaa !409
  invoke void @_ZN6solver11assert_exprEP4expr(ptr noundef nonnull align 8 dereferenceable(96) %0, ptr noundef %8)
          to label %9 unwind label %40

9:                                                ; preds = %3
  %10 = getelementptr inbounds nuw i8, ptr %0, i64 928
  %11 = invoke noundef i32 @_ZN3smt6kernel5checkEjPKP4expr(ptr noundef nonnull align 8 dereferenceable(8) %10, i32 noundef 0, ptr noundef null)
          to label %12 unwind label %42

12:                                               ; preds = %9
  switch i32 %11, label %_ZN3opt10opt_solver13adjust_resultE5lbool.exit.thread12 [
    i32 0, label %13
    i32 1, label %17
  ]

13:                                               ; preds = %12
  %14 = invoke noundef i32 @_ZNK3smt6kernel12last_failureEv(ptr noundef nonnull align 8 dereferenceable(8) %10)
          to label %.noexc unwind label %42

.noexc:                                           ; preds = %13
  %15 = icmp eq i32 %14, 8
  br i1 %15, label %_ZN3opt10opt_solver13adjust_resultE5lbool.exit.thread, label %_ZN3opt10opt_solver13adjust_resultE5lbool.exit.thread12

_ZN3opt10opt_solver13adjust_resultE5lbool.exit.thread: ; preds = %.noexc
  %16 = getelementptr inbounds nuw i8, ptr %0, i64 1041
  store i8 1, ptr %16, align 1, !tbaa !94
  br label %17

17:                                               ; preds = %12, %_ZN3opt10opt_solver13adjust_resultE5lbool.exit.thread
  %18 = getelementptr inbounds nuw i8, ptr %0, i64 968
  invoke void @_ZN3smt6kernel9get_modelER3refI5modelE(ptr noundef nonnull align 8 dereferenceable(8) %10, ptr noundef nonnull align 8 dereferenceable(8) %18)
          to label %19 unwind label %42

19:                                               ; preds = %17
  %20 = getelementptr inbounds nuw i8, ptr %0, i64 992
  %21 = load ptr, ptr %18, align 8, !tbaa !288
  %.not.i.i.i = icmp eq ptr %21, null
  br i1 %.not.i.i.i, label %_ZN15ref_vector_coreI5model21ref_unmanaged_wrapperIS0_EE7inc_refEPS0_.exit.i, label %22

22:                                               ; preds = %19
  %23 = getelementptr inbounds nuw i8, ptr %21, i64 16
  %24 = load i32, ptr %23, align 8, !tbaa !273
  %25 = add i32 %24, 1
  store i32 %25, ptr %23, align 8, !tbaa !273
  br label %_ZN15ref_vector_coreI5model21ref_unmanaged_wrapperIS0_EE7inc_refEPS0_.exit.i

_ZN15ref_vector_coreI5model21ref_unmanaged_wrapperIS0_EE7inc_refEPS0_.exit.i: ; preds = %22, %19
  %26 = load ptr, ptr %20, align 8, !tbaa !271
  %27 = zext i32 %1 to i64
  %28 = getelementptr inbounds nuw ptr, ptr %26, i64 %27
  %29 = load ptr, ptr %28, align 8, !tbaa !272
  %.not.i.i4.i = icmp eq ptr %29, null
  br i1 %.not.i.i4.i, label %_ZN15ref_vector_coreI5model21ref_unmanaged_wrapperIS0_EE3setEjPS0_.exit, label %30

30:                                               ; preds = %_ZN15ref_vector_coreI5model21ref_unmanaged_wrapperIS0_EE7inc_refEPS0_.exit.i
  %31 = getelementptr inbounds nuw i8, ptr %29, i64 16
  %32 = load i32, ptr %31, align 8, !tbaa !273
  %33 = add i32 %32, -1
  store i32 %33, ptr %31, align 8, !tbaa !273
  %34 = icmp eq i32 %33, 0
  br i1 %34, label %35, label %_ZN15ref_vector_coreI5model21ref_unmanaged_wrapperIS0_EE3setEjPS0_.exit

35:                                               ; preds = %30
  %36 = load ptr, ptr %29, align 8, !tbaa !3
  %37 = load ptr, ptr %36, align 8
  call void %37(ptr noundef nonnull align 8 dereferenceable(96) %29) #26
  invoke void @_ZN6memory10deallocateEPv(ptr noundef nonnull align 8 dereferenceable(96) %29)
          to label %.noexc10 unwind label %42

.noexc10:                                         ; preds = %35
  %.pre.i = load ptr, ptr %20, align 8, !tbaa !271
  br label %_ZN15ref_vector_coreI5model21ref_unmanaged_wrapperIS0_EE3setEjPS0_.exit

_ZN15ref_vector_coreI5model21ref_unmanaged_wrapperIS0_EE3setEjPS0_.exit: ; preds = %_ZN15ref_vector_coreI5model21ref_unmanaged_wrapperIS0_EE7inc_refEPS0_.exit.i, %30, %.noexc10
  %38 = phi ptr [ %26, %_ZN15ref_vector_coreI5model21ref_unmanaged_wrapperIS0_EE7inc_refEPS0_.exit.i ], [ %26, %30 ], [ %.pre.i, %.noexc10 ]
  %39 = getelementptr inbounds nuw ptr, ptr %38, i64 %27
  store ptr %21, ptr %39, align 8, !tbaa !272
  br label %_ZN3opt10opt_solver13adjust_resultE5lbool.exit.thread12

40:                                               ; preds = %3
  %41 = landingpad { ptr, i32 }
          cleanup
  br label %61

42:                                               ; preds = %35, %13, %_ZN3opt10opt_solver13adjust_resultE5lbool.exit.thread12, %17, %9
  %43 = landingpad { ptr, i32 }
          cleanup
  br label %61

_ZN3opt10opt_solver13adjust_resultE5lbool.exit.thread12: ; preds = %12, %.noexc, %_ZN15ref_vector_coreI5model21ref_unmanaged_wrapperIS0_EE3setEjPS0_.exit
  %44 = phi i1 [ true, %_ZN15ref_vector_coreI5model21ref_unmanaged_wrapperIS0_EE3setEjPS0_.exit ], [ false, %.noexc ], [ false, %12 ]
  %45 = load ptr, ptr %0, align 8, !tbaa !3
  %46 = getelementptr inbounds nuw i8, ptr %45, i64 408
  %47 = load ptr, ptr %46, align 8
  invoke void %47(ptr noundef nonnull align 8 dereferenceable(1042) %0, i32 noundef 1)
          to label %48 unwind label %42

48:                                               ; preds = %_ZN3opt10opt_solver13adjust_resultE5lbool.exit.thread12
  %49 = load ptr, ptr %4, align 8, !tbaa !409
  %.not.i.i = icmp eq ptr %49, null
  br i1 %.not.i.i, label %_ZN7obj_refI4expr11ast_managerED2Ev.exit, label %50

50:                                               ; preds = %48
  %51 = getelementptr inbounds nuw i8, ptr %4, i64 8
  %52 = load ptr, ptr %51, align 8, !tbaa !412
  %53 = getelementptr inbounds nuw i8, ptr %49, i64 8
  %54 = load i32, ptr %53, align 4, !tbaa !267
  %55 = add i32 %54, -1
  store i32 %55, ptr %53, align 4, !tbaa !267
  %56 = icmp eq i32 %55, 0
  br i1 %56, label %57, label %_ZN7obj_refI4expr11ast_managerED2Ev.exit

57:                                               ; preds = %50
  invoke void @_ZN11ast_manager11delete_nodeEP3ast(ptr noundef nonnull align 8 dereferenceable(976) %52, ptr noundef nonnull %49)
          to label %_ZN7obj_refI4expr11ast_managerED2Ev.exit unwind label %58

58:                                               ; preds = %57
  %59 = landingpad { ptr, i32 }
          catch ptr null
  %60 = extractvalue { ptr, i32 } %59, 0
  call void @__clang_call_terminate(ptr %60) #27
  unreachable

_ZN7obj_refI4expr11ast_managerED2Ev.exit:         ; preds = %48, %50, %57
  call void @llvm.lifetime.end.p0(i64 16, ptr nonnull %4) #26
  ret i1 %44

61:                                               ; preds = %42, %40
  %.pn = phi { ptr, i32 } [ %43, %42 ], [ %41, %40 ]
  call void @_ZN7obj_refI4expr11ast_managerED2Ev(ptr noundef nonnull align 8 dereferenceable(16) %4) #26
  call void @llvm.lifetime.end.p0(i64 16, ptr nonnull %4) #26
  resume { ptr, i32 } %.pn
}